target datalayout = "e-m:e-p270:32:32-p271:32:32-p272:64:64-i64:64-i128:128-f80:128-n8:16:32:64-S128"
target triple = "x86_64-pc-linux-gnu"

%struct.dt_pthread_mutex_t = type { %union.pthread_mutex_t }
%union.pthread_mutex_t = type { %struct.__pthread_mutex_s }
%struct.__pthread_mutex_s = type { i32, i32, i32, i32, i32, i16, i16, %struct.__pthread_internal_list }
%struct.__pthread_internal_list = type { ptr, ptr }
%struct._dt_progress_t = type { double, ptr, i32, %struct.dt_pthread_mutex_t, ptr, ptr, ptr }
%struct.dt_control_t = type { i32, ptr, %struct.dt_action_t, %struct.dt_action_t, %struct.dt_action_t, %struct.dt_action_t, %struct.dt_action_t, %struct.dt_action_t, %struct.dt_action_t, %struct.dt_action_t, %struct.dt_action_t, %struct.dt_action_t, %struct.dt_action_t, ptr, ptr, ptr, i32, ptr, i32, i32, ptr, ptr, [256 x i8], i32, double, i32, i32, i64, i32, i32, i32, double, double, i32, i32, i32, i32, i32, i32, [8 x [1000 x i8]], i32, i32, %struct.dt_pthread_mutex_t, i32, i32, [2 x [300 x i8]], i32, i32, %struct.dt_pthread_mutex_t, %struct.dt_pthread_mutex_t, %struct.dt_pthread_mutex_t, double, i32, i32, i32, %struct.dt_pthread_mutex_t, %struct.dt_pthread_mutex_t, %union.pthread_cond_t, i32, ptr, i64, i64, ptr, [5 x ptr], [5 x i64], %struct.dt_pthread_mutex_t, [3 x ptr], [3 x i8], [3 x i64], %struct.anon.1, %struct.anon.3 }
%struct.dt_action_t = type { i32, ptr, ptr, ptr, ptr, ptr }
%union.pthread_cond_t = type { %struct.__pthread_cond_s }
%struct.__pthread_cond_s = type { %union.__atomic_wide_counter, %union.__atomic_wide_counter, [2 x i32], [2 x i32], i32, i32, [2 x i32] }
%union.__atomic_wide_counter = type { i64 }
%struct.anon.1 = type { ptr, i64, i64, double, %struct.dt_pthread_mutex_t, %struct.anon.2 }
%struct.anon.2 = type { ptr, ptr, ptr, ptr, ptr, ptr }
%struct.anon.3 = type { %struct.anon.4 }
%struct.anon.4 = type { ptr, ptr }

; Function Attrs: inlinehint nounwind uwtable
define internal i32 @dt_pthread_mutex_unlock(ptr noundef %0) #4 {
  %2 = alloca ptr, align 8
  store ptr %0, ptr %2, align 8, !tbaa !87
  %3 = load ptr, ptr %2, align 8, !tbaa !87
  %4 = getelementptr inbounds nuw %struct.dt_pthread_mutex_t, ptr %3, i32 0, i32 0
  %5 = call i32 @pthread_mutex_unlock(ptr noundef %4) #6
  ret i32 %5
}

; Function Attrs: inlinehint nounwind uwtable
define internal i32 @dt_pthread_mutex_lock(ptr noundef %0) #4 {
  %2 = alloca ptr, align 8
  store ptr %0, ptr %2, align 8, !tbaa !87
  %3 = load ptr, ptr %2, align 8, !tbaa !87
  %4 = getelementptr inbounds nuw %struct.dt_pthread_mutex_t, ptr %3, i32 0, i32 0
  %5 = call i32 @pthread_mutex_lock(ptr noundef %4) #6
  ret i32 %5
}

; Function Attrs: nounwind uwtable
define void @dt_control_progress_make_cancellable(ptr noundef %0, ptr noundef %1, ptr noundef %2, ptr noundef %3) #0 {
  %5 = alloca ptr, align 8
  %6 = alloca ptr, align 8
  %7 = alloca ptr, align 8
  %8 = alloca ptr, align 8
  store ptr %0, ptr %5, align 8, !tbaa !6
  store ptr %1, ptr %6, align 8, !tbaa !62
  store ptr %2, ptr %7, align 8, !tbaa !89
  store ptr %3, ptr %8, align 8, !tbaa !89
  %9 = load ptr, ptr %6, align 8, !tbaa !62
  %10 = getelementptr inbounds nuw %struct._dt_progress_t, ptr %9, i32 0, i32 3
  %11 = call i32 @dt_pthread_mutex_lock(ptr noundef %10)
  %12 = load ptr, ptr %7, align 8, !tbaa !89
  %13 = load ptr, ptr %6, align 8, !tbaa !62
  %14 = getelementptr inbounds nuw %struct._dt_progress_t, ptr %13, i32 0, i32 5
  store ptr %12, ptr %14, align 8, !tbaa !98
  %15 = load ptr, ptr %8, align 8, !tbaa !89
  %16 = load ptr, ptr %6, align 8, !tbaa !62
  %17 = getelementptr inbounds nuw %struct._dt_progress_t, ptr %16, i32 0, i32 6
  store ptr %15, ptr %17, align 8, !tbaa !99
  %18 = load ptr, ptr %6, align 8, !tbaa !62
  %19 = getelementptr inbounds nuw %struct._dt_progress_t, ptr %18, i32 0, i32 3
  %20 = call i32 @dt_pthread_mutex_unlock(ptr noundef %19)
  %21 = load ptr, ptr %5, align 8, !tbaa !6
  %22 = getelementptr inbounds nuw %struct.dt_control_t, ptr %21, i32 0, i32 69
  %23 = getelementptr inbounds nuw %struct.anon.1, ptr %22, i32 0, i32 4
  %24 = call i32 @dt_pthread_mutex_lock(ptr noundef %23)
  %25 = load ptr, ptr %5, align 8, !tbaa !6
  %26 = getelementptr inbounds nuw %struct.dt_control_t, ptr %25, i32 0, i32 69
  %27 = getelementptr inbounds nuw %struct.anon.1, ptr %26, i32 0, i32 5
  %28 = getelementptr inbounds nuw %struct.anon.2, ptr %27, i32 0, i32 0
  %29 = load ptr, ptr %28, align 8, !tbaa !84
  %30 = icmp ne ptr %29, null
  br i1 %30, label %31, label %46

31:                                               ; preds = %4
  %32 = load ptr, ptr %5, align 8, !tbaa !6
  %33 = getelementptr inbounds nuw %struct.dt_control_t, ptr %32, i32 0, i32 69
  %34 = getelementptr inbounds nuw %struct.anon.1, ptr %33, i32 0, i32 5
  %35 = getelementptr inbounds nuw %struct.anon.2, ptr %34, i32 0, i32 3
  %36 = load ptr, ptr %35, align 8, !tbaa !100
  %37 = load ptr, ptr %5, align 8, !tbaa !6
  %38 = getelementptr inbounds nuw %struct.dt_control_t, ptr %37, i32 0, i32 69
  %39 = getelementptr inbounds nuw %struct.anon.1, ptr %38, i32 0, i32 5
  %40 = getelementptr inbounds nuw %struct.anon.2, ptr %39, i32 0, i32 0
  %41 = load ptr, ptr %40, align 8, !tbaa !84
  %42 = load ptr, ptr %6, align 8, !tbaa !62
  %43 = getelementptr inbounds nuw %struct._dt_progress_t, ptr %42, i32 0, i32 4
  %44 = load ptr, ptr %43, align 8, !tbaa !86
  %45 = load ptr, ptr %6, align 8, !tbaa !62
  call void %36(ptr noundef %41, ptr noundef %44, ptr noundef %45)
  br label %46

46:                                               ; preds = %31, %4
  %47 = load ptr, ptr %5, align 8, !tbaa !6
  %48 = getelementptr inbounds nuw %struct.dt_control_t, ptr %47, i32 0, i32 69
  %49 = getelementptr inbounds nuw %struct.anon.1, ptr %48, i32 0, i32 4
  %50 = call i32 @dt_pthread_mutex_unlock(ptr noundef %49)
  ret void
}