; Function Attrs: nounwind uwtable
define void @dt_control_progress_make_cancellable(ptr noundef %0, ptr noundef %1, ptr noundef %2, ptr noundef %3) local_unnamed_addr #0 {
  %5 = getelementptr inbounds nuw i8, ptr %1, i64 24
  %6 = tail call i32 @pthread_mutex_lock(ptr noundef nonnull %5) #6
  %7 = getelementptr inbounds nuw i8, ptr %1, i64 72
  store ptr %2, ptr %7, align 8, !tbaa !86
  %8 = getelementptr inbounds nuw i8, ptr %1, i64 80
  store ptr %3, ptr %8, align 8, !tbaa !87
  %9 = tail call i32 @pthread_mutex_unlock(ptr noundef nonnull %5) #6
  %10 = getelementptr inbounds nuw i8, ptr %0, i64 10136
  %11 = tail call i32 @pthread_mutex_lock(ptr noundef nonnull %10) #6
  %12 = getelementptr inbounds nuw i8, ptr %0, i64 10176
  %13 = load ptr, ptr %12, align 8, !tbaa !78
  %.not = icmp eq ptr %13, null
  br i1 %.not, label %19, label %14

14:                                               ; preds = %4
  %15 = getelementptr inbounds nuw i8, ptr %0, i64 10200
  %16 = load ptr, ptr %15, align 8, !tbaa !88
  %17 = getelementptr inbounds nuw i8, ptr %1, i64 64
  %18 = load ptr, ptr %17, align 8, !tbaa !80
  tail call void %16(ptr noundef nonnull %13, ptr noundef %18, ptr noundef nonnull %1) #6
  br label %19

19:                                               ; preds = %14, %4
  %20 = tail call i32 @pthread_mutex_unlock(ptr noundef nonnull %10) #6
  ret void
}